target datalayout = "e-m:e-p270:32:32-p271:32:32-p272:64:64-i64:64-i128:128-f80:128-n8:16:32:64-S128"
target triple = "x86_64-pc-linux-gnu"

%struct.PLwdatum = type { ptr, ptr, i8, ptr }
%struct.PLpgSQL_function = type { ptr, i32, i32, %struct.ItemPointerData, i32, i32, ptr, ptr, i32, i32, i8, i8, i8, i8, i8, i8, i32, [100 x i32], i32, i32, i32, i32, i32, i8, i32, i32, i32, ptr, i64, ptr, i32, i8, i8, ptr, i64 }
%struct.ItemPointerData = type { %struct.BlockIdData, i16 }
%struct.BlockIdData = type { i16, i16 }
%struct.PLpgSQL_datum = type { i32, i32 }
%struct.PLpgSQL_stmt_return = type { i32, i32, i32, ptr, i32 }

@plpgsql_curr_compile = external global ptr, align 8
@.str.2 = private unnamed_addr constant [11 x i8] c"plpgsql-18\00", align 1
@.str.4 = private unnamed_addr constant [10 x i8] c"pl_gram.y\00", align 1
@.str.12 = private unnamed_addr constant [2 x i8] c";\00", align 1
@.str.107 = private unnamed_addr constant [57 x i8] c"RETURN cannot have a parameter in function returning set\00", align 1
@.str.108 = private unnamed_addr constant [33 x i8] c"Use RETURN NEXT or RETURN QUERY.\00", align 1
@__func__.make_return_stmt = private unnamed_addr constant [17 x i8] c"make_return_stmt\00", align 1
@.str.109 = private unnamed_addr constant [46 x i8] c"RETURN cannot have a parameter in a procedure\00", align 1
@.str.110 = private unnamed_addr constant [58 x i8] c"RETURN cannot have a parameter in function returning void\00", align 1
@.str.111 = private unnamed_addr constant [63 x i8] c"RETURN cannot have a parameter in function with OUT parameters\00", align 1

; Function Attrs: nounwind uwtable
define internal ptr @read_sql_expression(i32 noundef %0, ptr noundef %1, ptr noundef %2, ptr noundef %3, ptr noundef %4) #0 {
  %6 = alloca i32, align 4
  %7 = alloca ptr, align 8
  %8 = alloca ptr, align 8
  %9 = alloca ptr, align 8
  %10 = alloca ptr, align 8
  store i32 %0, ptr %6, align 4
  store ptr %1, ptr %7, align 8
  store ptr %2, ptr %8, align 8
  store ptr %3, ptr %9, align 8
  store ptr %4, ptr %10, align 8
  %11 = load i32, ptr %6, align 4
  %12 = load ptr, ptr %7, align 8
  %13 = load ptr, ptr %8, align 8
  %14 = load ptr, ptr %9, align 8
  %15 = load ptr, ptr %10, align 8
  %16 = call ptr @read_sql_construct(i32 noundef %11, i32 noundef 0, i32 noundef 0, ptr noundef %12, i32 noundef 2, i1 noundef zeroext true, i1 noundef zeroext true, ptr noundef null, ptr noundef null, ptr noundef %13, ptr noundef %14, ptr noundef %15)
  ret ptr %16
}

; Function Attrs: nounwind uwtable
define internal ptr @make_return_stmt(i32 noundef %0, ptr noundef %1, ptr noundef %2, ptr noundef %3) #0 {
  %5 = alloca i32, align 4
  %6 = alloca ptr, align 8
  %7 = alloca ptr, align 8
  %8 = alloca ptr, align 8
  %9 = alloca ptr, align 8
  %10 = alloca i32, align 4
  store i32 %0, ptr %5, align 4
  store ptr %1, ptr %6, align 8
  store ptr %2, ptr %7, align 8
  store ptr %3, ptr %8, align 8
  call void @llvm.lifetime.start.p0(i64 8, ptr %9) #10
  %11 = call ptr @palloc0(i64 noundef 32)
  store ptr %11, ptr %9, align 8
  %12 = load ptr, ptr %9, align 8
  %13 = getelementptr inbounds nuw %struct.PLpgSQL_stmt_return, ptr %12, i32 0, i32 0
  store i32 11, ptr %13, align 8
  %14 = load i32, ptr %5, align 4
  %15 = load ptr, ptr %8, align 8
  %16 = call i32 @plpgsql_location_to_lineno(i32 noundef %14, ptr noundef %15)
  %17 = load ptr, ptr %9, align 8
  %18 = getelementptr inbounds nuw %struct.PLpgSQL_stmt_return, ptr %17, i32 0, i32 1
  store i32 %16, ptr %18, align 4
  %19 = load ptr, ptr @plpgsql_curr_compile, align 8
  %20 = getelementptr inbounds nuw %struct.PLpgSQL_function, ptr %19, i32 0, i32 30
  %21 = load i32, ptr %20, align 8
  %22 = add i32 %21, 1
  store i32 %22, ptr %20, align 8
  %23 = load ptr, ptr %9, align 8
  %24 = getelementptr inbounds nuw %struct.PLpgSQL_stmt_return, ptr %23, i32 0, i32 2
  store i32 %22, ptr %24, align 8
  %25 = load ptr, ptr %9, align 8
  %26 = getelementptr inbounds nuw %struct.PLpgSQL_stmt_return, ptr %25, i32 0, i32 3
  store ptr null, ptr %26, align 8
  %27 = load ptr, ptr %9, align 8
  %28 = getelementptr inbounds nuw %struct.PLpgSQL_stmt_return, ptr %27, i32 0, i32 4
  store i32 -1, ptr %28, align 8
  %29 = load ptr, ptr @plpgsql_curr_compile, align 8
  %30 = getelementptr inbounds nuw %struct.PLpgSQL_function, ptr %29, i32 0, i32 13
  %31 = load i8, ptr %30, align 1, !range !3, !noundef !4
  %32 = trunc i8 %31 to i1
  br i1 %32, label %33, label %57

33:                                               ; preds = %4
  %34 = load ptr, ptr %6, align 8
  %35 = load ptr, ptr %7, align 8
  %36 = load ptr, ptr %8, align 8
  %37 = call i32 @plpgsql_yylex(ptr noundef %34, ptr noundef %35, ptr noundef %36)
  %38 = icmp ne i32 %37, 59
  br i1 %38, label %39, label %56

39:                                               ; preds = %33
  br label %40

40:                                               ; preds = %39
  br i1 true, label %41, label %43

41:                                               ; preds = %40
  %42 = call zeroext i1 @errstart_cold(i32 noundef 21, ptr noundef @.str.2) #12
  br i1 %42, label %45, label %53

43:                                               ; preds = %40
  %44 = call zeroext i1 @errstart(i32 noundef 21, ptr noundef @.str.2)
  br i1 %44, label %45, label %53

45:                                               ; preds = %43, %41
  %46 = call i32 @errcode(i32 noundef 67141764)
  %47 = call i32 (ptr, ...) @errmsg(ptr noundef @.str.107)
  %48 = call i32 (ptr, ...) @errhint(ptr noundef @.str.108)
  %49 = load ptr, ptr %7, align 8
  %50 = load i32, ptr %49, align 4
  %51 = load ptr, ptr %8, align 8
  %52 = call i32 @plpgsql_scanner_errposition(i32 noundef %50, ptr noundef %51)
  call void @errfinish(ptr noundef @.str.4, i32 noundef 3373, ptr noundef @__func__.make_return_stmt)
  br label %53

53:                                               ; preds = %45, %43, %41
  unreachable

54:                                               ; No predecessors!
  br label %55

55:                                               ; preds = %54
  br label %56

56:                                               ; preds = %55, %33
  br label %206

57:                                               ; preds = %4
  %58 = load ptr, ptr @plpgsql_curr_compile, align 8
  %59 = getelementptr inbounds nuw %struct.PLpgSQL_function, ptr %58, i32 0, i32 8
  %60 = load i32, ptr %59, align 8
  %61 = icmp eq i32 %60, 2278
  br i1 %61, label %62, label %108

62:                                               ; preds = %57
  %63 = load ptr, ptr %6, align 8
  %64 = load ptr, ptr %7, align 8
  %65 = load ptr, ptr %8, align 8
  %66 = call i32 @plpgsql_yylex(ptr noundef %63, ptr noundef %64, ptr noundef %65)
  %67 = icmp ne i32 %66, 59
  br i1 %67, label %68, label %107

68:                                               ; preds = %62
  %69 = load ptr, ptr @plpgsql_curr_compile, align 8
  %70 = getelementptr inbounds nuw %struct.PLpgSQL_function, ptr %69, i32 0, i32 15
  %71 = load i8, ptr %70, align 1
  %72 = sext i8 %71 to i32
  %73 = icmp eq i32 %72, 112
  br i1 %73, label %74, label %90

74:                                               ; preds = %68
  br label %75

75:                                               ; preds = %74
  br i1 true, label %76, label %78

76:                                               ; preds = %75
  %77 = call zeroext i1 @errstart_cold(i32 noundef 21, ptr noundef @.str.2) #12
  br i1 %77, label %80, label %87

78:                                               ; preds = %75
  %79 = call zeroext i1 @errstart(i32 noundef 21, ptr noundef @.str.2)
  br i1 %79, label %80, label %87

80:                                               ; preds = %78, %76
  %81 = call i32 @errcode(i32 noundef 16801924)
  %82 = call i32 (ptr, ...) @errmsg(ptr noundef @.str.109)
  %83 = load ptr, ptr %7, align 8
  %84 = load i32, ptr %83, align 4
  %85 = load ptr, ptr %8, align 8
  %86 = call i32 @plpgsql_scanner_errposition(i32 noundef %84, ptr noundef %85)
  call void @errfinish(ptr noundef @.str.4, i32 noundef 3383, ptr noundef @__func__.make_return_stmt)
  br label %87

87:                                               ; preds = %80, %78, %76
  unreachable

88:                                               ; No predecessors!
  br label %89

89:                                               ; preds = %88
  br label %106

90:                                               ; preds = %68
  br label %91

91:                                               ; preds = %90
  br i1 true, label %92, label %94

92:                                               ; preds = %91
  %93 = call zeroext i1 @errstart_cold(i32 noundef 21, ptr noundef @.str.2) #12
  br i1 %93, label %96, label %103

94:                                               ; preds = %91
  %95 = call zeroext i1 @errstart(i32 noundef 21, ptr noundef @.str.2)
  br i1 %95, label %96, label %103

96:                                               ; preds = %94, %92
  %97 = call i32 @errcode(i32 noundef 67141764)
  %98 = call i32 (ptr, ...) @errmsg(ptr noundef @.str.110)
  %99 = load ptr, ptr %7, align 8
  %100 = load i32, ptr %99, align 4
  %101 = load ptr, ptr %8, align 8
  %102 = call i32 @plpgsql_scanner_errposition(i32 noundef %100, ptr noundef %101)
  call void @errfinish(ptr noundef @.str.4, i32 noundef 3388, ptr noundef @__func__.make_return_stmt)
  br label %103

103:                                              ; preds = %96, %94, %92
  unreachable

104:                                              ; No predecessors!
  br label %105

105:                                              ; preds = %104
  br label %106

106:                                              ; preds = %105, %89
  br label %107

107:                                              ; preds = %106, %62
  br label %205

108:                                              ; preds = %57
  %109 = load ptr, ptr @plpgsql_curr_compile, align 8
  %110 = getelementptr inbounds nuw %struct.PLpgSQL_function, ptr %109, i32 0, i32 18
  %111 = load i32, ptr %110, align 4
  %112 = icmp sge i32 %111, 0
  br i1 %112, label %113, label %141

113:                                              ; preds = %108
  %114 = load ptr, ptr %6, align 8
  %115 = load ptr, ptr %7, align 8
  %116 = load ptr, ptr %8, align 8
  %117 = call i32 @plpgsql_yylex(ptr noundef %114, ptr noundef %115, ptr noundef %116)
  %118 = icmp ne i32 %117, 59
  br i1 %118, label %119, label %135

119:                                              ; preds = %113
  br label %120

120:                                              ; preds = %119
  br i1 true, label %121, label %123

121:                                              ; preds = %120
  %122 = call zeroext i1 @errstart_cold(i32 noundef 21, ptr noundef @.str.2) #12
  br i1 %122, label %125, label %132

123:                                              ; preds = %120
  %124 = call zeroext i1 @errstart(i32 noundef 21, ptr noundef @.str.2)
  br i1 %124, label %125, label %132

125:                                              ; preds = %123, %121
  %126 = call i32 @errcode(i32 noundef 67141764)
  %127 = call i32 (ptr, ...) @errmsg(ptr noundef @.str.111)
  %128 = load ptr, ptr %7, align 8
  %129 = load i32, ptr %128, align 4
  %130 = load ptr, ptr %8, align 8
  %131 = call i32 @plpgsql_scanner_errposition(i32 noundef %129, ptr noundef %130)
  call void @errfinish(ptr noundef @.str.4, i32 noundef 3397, ptr noundef @__func__.make_return_stmt)
  br label %132

132:                                              ; preds = %125, %123, %121
  unreachable

133:                                              ; No predecessors!
  br label %134

134:                                              ; preds = %133
  br label %135

135:                                              ; preds = %134, %113
  %136 = load ptr, ptr @plpgsql_curr_compile, align 8
  %137 = getelementptr inbounds nuw %struct.PLpgSQL_function, ptr %136, i32 0, i32 18
  %138 = load i32, ptr %137, align 4
  %139 = load ptr, ptr %9, align 8
  %140 = getelementptr inbounds nuw %struct.PLpgSQL_stmt_return, ptr %139, i32 0, i32 4
  store i32 %138, ptr %140, align 8
  br label %204

141:                                              ; preds = %108
  call void @llvm.lifetime.start.p0(i64 4, ptr %10) #10
  %142 = load ptr, ptr %6, align 8
  %143 = load ptr, ptr %7, align 8
  %144 = load ptr, ptr %8, align 8
  %145 = call i32 @plpgsql_yylex(ptr noundef %142, ptr noundef %143, ptr noundef %144)
  store i32 %145, ptr %10, align 4
  %146 = load i32, ptr %10, align 4
  %147 = icmp eq i32 %146, 277
  br i1 %147, label %148, label %192

148:                                              ; preds = %141
  %149 = load ptr, ptr %8, align 8
  %150 = call i32 @plpgsql_peek(ptr noundef %149)
  %151 = icmp eq i32 %150, 59
  br i1 %151, label %152, label %192

152:                                              ; preds = %148
  %153 = load ptr, ptr %6, align 8
  %154 = getelementptr inbounds nuw %struct.PLwdatum, ptr %153, i32 0, i32 0
  %155 = load ptr, ptr %154, align 8
  %156 = getelementptr inbounds nuw %struct.PLpgSQL_datum, ptr %155, i32 0, i32 0
  %157 = load i32, ptr %156, align 4
  %158 = icmp eq i32 %157, 0
  br i1 %158, label %180, label %159

159:                                              ; preds = %152
  %160 = load ptr, ptr %6, align 8
  %161 = getelementptr inbounds nuw %struct.PLwdatum, ptr %160, i32 0, i32 0
  %162 = load ptr, ptr %161, align 8
  %163 = getelementptr inbounds nuw %struct.PLpgSQL_datum, ptr %162, i32 0, i32 0
  %164 = load i32, ptr %163, align 4
  %165 = icmp eq i32 %164, 4
  br i1 %165, label %180, label %166

166:                                              ; preds = %159
  %167 = load ptr, ptr %6, align 8
  %168 = getelementptr inbounds nuw %struct.PLwdatum, ptr %167, i32 0, i32 0
  %169 = load ptr, ptr %168, align 8
  %170 = getelementptr inbounds nuw %struct.PLpgSQL_datum, ptr %169, i32 0, i32 0
  %171 = load i32, ptr %170, align 4
  %172 = icmp eq i32 %171, 1
  br i1 %172, label %180, label %173

173:                                              ; preds = %166
  %174 = load ptr, ptr %6, align 8
  %175 = getelementptr inbounds nuw %struct.PLwdatum, ptr %174, i32 0, i32 0
  %176 = load ptr, ptr %175, align 8
  %177 = getelementptr inbounds nuw %struct.PLpgSQL_datum, ptr %176, i32 0, i32 0
  %178 = load i32, ptr %177, align 4
  %179 = icmp eq i32 %178, 2
  br i1 %179, label %180, label %192

180:                                              ; preds = %173, %166, %159, %152
  %181 = load ptr, ptr %6, align 8
  %182 = getelementptr inbounds nuw %struct.PLwdatum, ptr %181, i32 0, i32 0
  %183 = load ptr, ptr %182, align 8
  %184 = getelementptr inbounds nuw %struct.PLpgSQL_datum, ptr %183, i32 0, i32 1
  %185 = load i32, ptr %184, align 4
  %186 = load ptr, ptr %9, align 8
  %187 = getelementptr inbounds nuw %struct.PLpgSQL_stmt_return, ptr %186, i32 0, i32 4
  store i32 %185, ptr %187, align 8
  %188 = load ptr, ptr %6, align 8
  %189 = load ptr, ptr %7, align 8
  %190 = load ptr, ptr %8, align 8
  %191 = call i32 @plpgsql_yylex(ptr noundef %188, ptr noundef %189, ptr noundef %190)
  store i32 %191, ptr %10, align 4
  br label %203

192:                                              ; preds = %173, %148, %141
  %193 = load i32, ptr %10, align 4
  %194 = load ptr, ptr %6, align 8
  %195 = load ptr, ptr %7, align 8
  %196 = load ptr, ptr %8, align 8
  call void @plpgsql_push_back_token(i32 noundef %193, ptr noundef %194, ptr noundef %195, ptr noundef %196)
  %197 = load ptr, ptr %6, align 8
  %198 = load ptr, ptr %7, align 8
  %199 = load ptr, ptr %8, align 8
  %200 = call ptr @read_sql_expression(i32 noundef 59, ptr noundef @.str.12, ptr noundef %197, ptr noundef %198, ptr noundef %199)
  %201 = load ptr, ptr %9, align 8
  %202 = getelementptr inbounds nuw %struct.PLpgSQL_stmt_return, ptr %201, i32 0, i32 3
  store ptr %200, ptr %202, align 8
  br label %203

203:                                              ; preds = %192, %180
  call void @llvm.lifetime.end.p0(i64 4, ptr %10) #10
  br label %204

204:                                              ; preds = %203, %135
  br label %205

205:                                              ; preds = %204, %107
  br label %206

206:                                              ; preds = %205, %56
  %207 = load ptr, ptr %9, align 8
  call void @llvm.lifetime.end.p0(i64 8, ptr %9) #10
  ret ptr %207
}