; Function Attrs: nounwind uwtable
define internal fastcc noundef ptr @make_return_stmt(i32 noundef %0, ptr noundef nonnull %1, ptr noundef nonnull %2, ptr noundef %3) unnamed_addr #0 {
  %5 = tail call ptr @palloc0(i64 noundef 32) #12
  store i32 11, ptr %5, align 8
  %6 = tail call i32 @plpgsql_location_to_lineno(i32 noundef %0, ptr noundef %3) #12
  %7 = getelementptr inbounds nuw i8, ptr %5, i64 4
  store i32 %6, ptr %7, align 4
  %8 = load ptr, ptr @plpgsql_curr_compile, align 8
  %9 = getelementptr inbounds nuw i8, ptr %8, i64 528
  %10 = load i32, ptr %9, align 8
  %11 = add i32 %10, 1
  store i32 %11, ptr %9, align 8
  %12 = getelementptr inbounds nuw i8, ptr %5, i64 8
  store i32 %11, ptr %12, align 8
  %13 = getelementptr inbounds nuw i8, ptr %5, i64 16
  store ptr null, ptr %13, align 8
  %14 = getelementptr inbounds nuw i8, ptr %5, i64 24
  store i32 -1, ptr %14, align 8
  %15 = getelementptr inbounds nuw i8, ptr %8, i64 59
  %16 = load i8, ptr %15, align 1, !range !3, !noundef !4
  %17 = trunc nuw i8 %16 to i1
  br i1 %17, label %18, label %27

18:                                               ; preds = %4
  %19 = tail call i32 @plpgsql_yylex(ptr noundef nonnull %1, ptr noundef nonnull %2, ptr noundef %3) #12
  %.not48 = icmp eq i32 %19, 59
  br i1 %.not48, label %79, label %20

20:                                               ; preds = %18
  %21 = tail call zeroext i1 @errstart_cold(i32 noundef 21, ptr noundef nonnull @.str.2) #14
  tail call void @llvm.assume(i1 %21)
  %22 = tail call i32 @errcode(i32 noundef 67141764) #12
  %23 = tail call i32 (ptr, ...) @errmsg(ptr noundef nonnull @.str.107) #12
  %24 = tail call i32 (ptr, ...) @errhint(ptr noundef nonnull @.str.108) #12
  %25 = load i32, ptr %2, align 4
  %26 = tail call i32 @plpgsql_scanner_errposition(i32 noundef %25, ptr noundef %3) #12
  tail call void @errfinish(ptr noundef nonnull @.str.4, i32 noundef 3373, ptr noundef nonnull @__func__.make_return_stmt) #12
  unreachable

27:                                               ; preds = %4
  %28 = getelementptr inbounds nuw i8, ptr %8, i64 48
  %29 = load i32, ptr %28, align 8
  %30 = icmp eq i32 %29, 2278
  br i1 %30, label %31, label %49

31:                                               ; preds = %27
  %32 = tail call i32 @plpgsql_yylex(ptr noundef nonnull %1, ptr noundef nonnull %2, ptr noundef %3) #12
  %.not47 = icmp eq i32 %32, 59
  br i1 %.not47, label %79, label %33

33:                                               ; preds = %31
  %34 = load ptr, ptr @plpgsql_curr_compile, align 8
  %35 = getelementptr inbounds nuw i8, ptr %34, i64 61
  %36 = load i8, ptr %35, align 1
  %37 = icmp eq i8 %36, 112
  %38 = tail call zeroext i1 @errstart_cold(i32 noundef 21, ptr noundef nonnull @.str.2) #14
  tail call void @llvm.assume(i1 %38)
  br i1 %37, label %39, label %44

39:                                               ; preds = %33
  %40 = tail call i32 @errcode(i32 noundef 16801924) #12
  %41 = tail call i32 (ptr, ...) @errmsg(ptr noundef nonnull @.str.109) #12
  %42 = load i32, ptr %2, align 4
  %43 = tail call i32 @plpgsql_scanner_errposition(i32 noundef %42, ptr noundef %3) #12
  tail call void @errfinish(ptr noundef nonnull @.str.4, i32 noundef 3383, ptr noundef nonnull @__func__.make_return_stmt) #12
  unreachable

44:                                               ; preds = %33
  %45 = tail call i32 @errcode(i32 noundef 67141764) #12
  %46 = tail call i32 (ptr, ...) @errmsg(ptr noundef nonnull @.str.110) #12
  %47 = load i32, ptr %2, align 4
  %48 = tail call i32 @plpgsql_scanner_errposition(i32 noundef %47, ptr noundef %3) #12
  tail call void @errfinish(ptr noundef nonnull @.str.4, i32 noundef 3388, ptr noundef nonnull @__func__.make_return_stmt) #12
  unreachable

49:                                               ; preds = %27
  %50 = getelementptr inbounds nuw i8, ptr %8, i64 468
  %51 = load i32, ptr %50, align 4
  %52 = icmp sgt i32 %51, -1
  %53 = tail call i32 @plpgsql_yylex(ptr noundef nonnull %1, ptr noundef nonnull %2, ptr noundef %3) #12
  br i1 %52, label %54, label %65

54:                                               ; preds = %49
  %.not = icmp eq i32 %53, 59
  br i1 %.not, label %61, label %55

55:                                               ; preds = %54
  %56 = tail call zeroext i1 @errstart_cold(i32 noundef 21, ptr noundef nonnull @.str.2) #14
  tail call void @llvm.assume(i1 %56)
  %57 = tail call i32 @errcode(i32 noundef 67141764) #12
  %58 = tail call i32 (ptr, ...) @errmsg(ptr noundef nonnull @.str.111) #12
  %59 = load i32, ptr %2, align 4
  %60 = tail call i32 @plpgsql_scanner_errposition(i32 noundef %59, ptr noundef %3) #12
  tail call void @errfinish(ptr noundef nonnull @.str.4, i32 noundef 3397, ptr noundef nonnull @__func__.make_return_stmt) #12
  unreachable

61:                                               ; preds = %54
  %62 = load ptr, ptr @plpgsql_curr_compile, align 8
  %63 = getelementptr inbounds nuw i8, ptr %62, i64 468
  %64 = load i32, ptr %63, align 4
  store i32 %64, ptr %14, align 8
  br label %79

65:                                               ; preds = %49
  %66 = icmp eq i32 %53, 277
  br i1 %66, label %67, label %77

67:                                               ; preds = %65
  %68 = tail call i32 @plpgsql_peek(ptr noundef %3) #12
  %69 = icmp eq i32 %68, 59
  br i1 %69, label %70, label %77

70:                                               ; preds = %67
  %71 = load ptr, ptr %1, align 8
  %72 = load i32, ptr %71, align 4
  switch i32 %72, label %77 [
    i32 0, label %73
    i32 4, label %73
    i32 1, label %73
    i32 2, label %73
  ]

73:                                               ; preds = %70, %70, %70, %70
  %74 = getelementptr inbounds nuw i8, ptr %71, i64 4
  %75 = load i32, ptr %74, align 4
  store i32 %75, ptr %14, align 8
  %76 = tail call i32 @plpgsql_yylex(ptr noundef nonnull %1, ptr noundef nonnull %2, ptr noundef %3) #12
  br label %79

77:                                               ; preds = %70, %67, %65
  tail call void @plpgsql_push_back_token(i32 noundef %53, ptr noundef nonnull %1, ptr noundef nonnull %2, ptr noundef %3) #12
  %78 = tail call fastcc ptr @read_sql_construct(i32 noundef 59, i32 noundef 0, i32 noundef 0, ptr noundef nonnull @.str.12, i32 noundef 2, i1 noundef zeroext true, i1 noundef zeroext true, ptr noundef null, ptr noundef null, ptr noundef nonnull %1, ptr noundef nonnull %2, ptr noundef %3)
  store ptr %78, ptr %13, align 8
  br label %79

79:                                               ; preds = %73, %77, %31, %61, %18
  ret ptr %5
}